; Function Attrs: nounwind uwtable
define internal fastcc noundef nonnull ptr @get_http_string(ptr noundef %0, ptr noundef %1) unnamed_addr #0 {
  %3 = tail call zeroext i1 @Curl_conn_is_http2(ptr noundef %0, ptr noundef %1, i32 noundef 0) #11
  br i1 %3, label %Curl_use_http_1_1plus.exit.thread, label %4

4:                                                ; preds = %2
  %5 = getelementptr inbounds nuw i8, ptr %0, i64 4873
  %6 = load i8, ptr %5, align 1, !tbaa !145
  %7 = icmp eq i8 %6, 10
  br i1 %7, label %Curl_use_http_1_1plus.exit.thread, label %8

8:                                                ; preds = %4
  %9 = getelementptr inbounds nuw i8, ptr %1, i64 1372
  %10 = load i8, ptr %9, align 4, !tbaa !108
  %11 = icmp eq i8 %10, 10
  br i1 %11, label %Curl_use_http_1_1plus.exit.thread, label %Curl_use_http_1_1plus.exit

Curl_use_http_1_1plus.exit:                       ; preds = %8
  %12 = getelementptr inbounds nuw i8, ptr %0, i64 4872
  %13 = load i8, ptr %12, align 8, !tbaa !4
  %.fr = freeze i8 %13
  %.not = icmp eq i8 %.fr, 1
  %spec.select = select i1 %.not, ptr @.str.139, ptr @.str.138
  br label %Curl_use_http_1_1plus.exit.thread

Curl_use_http_1_1plus.exit.thread:                ; preds = %Curl_use_http_1_1plus.exit, %4, %8, %2
  %.0 = phi ptr [ @.str.137, %2 ], [ @.str.139, %8 ], [ @.str.139, %4 ], [ %spec.select, %Curl_use_http_1_1plus.exit ]
  ret ptr %.0
}